target datalayout = "e-m:e-p270:32:32-p271:32:32-p272:64:64-i64:64-i128:128-f80:128-n8:16:32:64-S128"
target triple = "x86_64-pc-linux-gnu"

%struct.OSSL_TIME = type { i64 }

@contention = internal global i32 0, align 4
@rcu_lock = internal global ptr null, align 8
@writer_ptr = internal global ptr null, align 8
@global_ctr = internal global i64 0, align 8

; Function Attrs: inlinehint nounwind uwtable
define internal i64 @ossl_time2ticks(i64 %0) #6 {
  %2 = alloca %struct.OSSL_TIME, align 8
  %3 = getelementptr inbounds nuw %struct.OSSL_TIME, ptr %2, i32 0, i32 0
  store i64 %0, ptr %3, align 8
  %4 = getelementptr inbounds nuw %struct.OSSL_TIME, ptr %2, i32 0, i32 0
  %5 = load i64, ptr %4, align 8, !tbaa !45
  ret i64 %5
}

; Function Attrs: nounwind uwtable
define internal void @writer_fn(i32 noundef %0, ptr noundef %1) #0 {
  %3 = alloca i32, align 4
  %4 = alloca ptr, align 8
  %5 = alloca i32, align 4
  %6 = alloca %struct.OSSL_TIME, align 8
  %7 = alloca %struct.OSSL_TIME, align 8
  %8 = alloca ptr, align 8
  %9 = alloca ptr, align 8
  %10 = alloca %struct.OSSL_TIME, align 8
  %11 = alloca %struct.OSSL_TIME, align 8
  store i32 %0, ptr %3, align 4, !tbaa !4
  store ptr %1, ptr %4, align 8, !tbaa !47
  call void @llvm.lifetime.start.p0(i64 4, ptr %5) #10
  call void @llvm.lifetime.start.p0(i64 8, ptr %6) #10
  call void @llvm.lifetime.start.p0(i64 8, ptr %7) #10
  call void @llvm.lifetime.start.p0(i64 8, ptr %8) #10
  call void @llvm.lifetime.start.p0(i64 8, ptr %9) #10
  call void @llvm.lifetime.start.p0(i64 8, ptr %10) #10
  %12 = call i64 @ossl_time_now()
  %13 = getelementptr inbounds nuw %struct.OSSL_TIME, ptr %10, i32 0, i32 0
  store i64 %12, ptr %13, align 8
  call void @llvm.memcpy.p0.p0.i64(ptr align 8 %6, ptr align 8 %10, i64 8, i1 false), !tbaa.struct !40
  call void @llvm.lifetime.end.p0(i64 8, ptr %10) #10
  store i32 0, ptr %5, align 4, !tbaa !4
  br label %14

14:                                               ; preds = %53, %2
  %15 = call noalias ptr @CRYPTO_zalloc(i64 noundef 8, ptr noundef null, i32 noundef 0)
  store ptr %15, ptr %9, align 8, !tbaa !36
  %16 = load i32, ptr @contention, align 4, !tbaa !4
  %17 = icmp eq i32 %16, 0
  br i1 %17, label %18, label %19

18:                                               ; preds = %14
  call void @OSSL_sleep(i64 noundef 1000)
  br label %19

19:                                               ; preds = %18, %14
  %20 = load ptr, ptr @rcu_lock, align 8, !tbaa !50
  call void @ossl_rcu_write_lock(ptr noundef %20)
  %21 = call ptr @ossl_rcu_uptr_deref(ptr noundef @writer_ptr)
  store ptr %21, ptr %8, align 8, !tbaa !36
  %22 = load i64, ptr @global_ctr, align 8, !tbaa !14
  %23 = add i64 %22, 1
  store i64 %23, ptr @global_ctr, align 8, !tbaa !14
  %24 = load ptr, ptr %9, align 8, !tbaa !36
  store i64 %22, ptr %24, align 8, !tbaa !14
  call void @ossl_rcu_assign_uptr(ptr noundef @writer_ptr, ptr noundef %9)
  %25 = load i32, ptr @contention, align 4, !tbaa !4
  %26 = icmp eq i32 %25, 0
  br i1 %26, label %27, label %31

27:                                               ; preds = %19
  %28 = load ptr, ptr @rcu_lock, align 8, !tbaa !50
  %29 = load ptr, ptr %8, align 8, !tbaa !36
  %30 = call i32 @ossl_rcu_call(ptr noundef %28, ptr noundef @free_old_rcu_data, ptr noundef %29)
  br label %31

31:                                               ; preds = %27, %19
  %32 = load ptr, ptr @rcu_lock, align 8, !tbaa !50
  call void @ossl_rcu_write_unlock(ptr noundef %32)
  %33 = load i32, ptr @contention, align 4, !tbaa !4
  %34 = icmp ne i32 %33, 0
  br i1 %34, label %35, label %38

35:                                               ; preds = %31
  %36 = load ptr, ptr @rcu_lock, align 8, !tbaa !50
  call void @ossl_synchronize_rcu(ptr noundef %36)
  %37 = load ptr, ptr %8, align 8, !tbaa !36
  call void @CRYPTO_free(ptr noundef %37, ptr noundef null, i32 noundef 0)
  br label %38

38:                                               ; preds = %35, %31
  call void @llvm.lifetime.start.p0(i64 8, ptr %11) #10
  %39 = call i64 @ossl_time_now()
  %40 = getelementptr inbounds nuw %struct.OSSL_TIME, ptr %11, i32 0, i32 0
  store i64 %39, ptr %40, align 8
  call void @llvm.memcpy.p0.p0.i64(ptr align 8 %7, ptr align 8 %11, i64 8, i1 false), !tbaa.struct !40
  call void @llvm.lifetime.end.p0(i64 8, ptr %11) #10
  %41 = getelementptr inbounds nuw %struct.OSSL_TIME, ptr %7, i32 0, i32 0
  %42 = load i64, ptr %41, align 8
  %43 = call i64 @ossl_time2ticks(i64 %42)
  %44 = udiv i64 %43, 1000000000
  %45 = getelementptr inbounds nuw %struct.OSSL_TIME, ptr %6, i32 0, i32 0
  %46 = load i64, ptr %45, align 8
  %47 = call i64 @ossl_time2ticks(i64 %46)
  %48 = udiv i64 %47, 1000000000
  %49 = sub i64 %44, %48
  %50 = icmp uge i64 %49, 4
  br i1 %50, label %51, label %52

51:                                               ; preds = %38
  br label %56

52:                                               ; preds = %38
  br label %53

53:                                               ; preds = %52
  %54 = load i32, ptr %5, align 4, !tbaa !4
  %55 = add nsw i32 %54, 1
  store i32 %55, ptr %5, align 4, !tbaa !4
  br label %14

56:                                               ; preds = %51
  %57 = load i32, ptr %5, align 4, !tbaa !4
  %58 = load ptr, ptr %4, align 8, !tbaa !47
  store i32 %57, ptr %58, align 4, !tbaa !4
  call void @llvm.lifetime.end.p0(i64 8, ptr %9) #10
  call void @llvm.lifetime.end.p0(i64 8, ptr %8) #10
  call void @llvm.lifetime.end.p0(i64 8, ptr %7) #10
  call void @llvm.lifetime.end.p0(i64 8, ptr %6) #10
  call void @llvm.lifetime.end.p0(i64 4, ptr %5) #10
  ret void
}