; Function Attrs: nounwind uwtable
define internal fastcc void @writer_fn(ptr noundef writeonly captures(none) %0) unnamed_addr #1 {
  %2 = alloca ptr, align 8
  call void @llvm.lifetime.start.p0(i64 8, ptr nonnull %2) #11
  %3 = tail call i64 @ossl_time_now() #11
  %4 = udiv i64 %3, 1000000000
  br label %5

5:                                                ; preds = %21, %1
  %.0 = phi i32 [ 0, %1 ], [ %26, %21 ]
  %6 = call noalias ptr @CRYPTO_zalloc(i64 noundef 8, ptr noundef null, i32 noundef 0) #11
  store ptr %6, ptr %2, align 8, !tbaa !36
  %.b8 = load i1, ptr @contention, align 4
  br i1 %.b8, label %8, label %7

7:                                                ; preds = %5
  call void @OSSL_sleep(i64 noundef 1000) #11
  br label %8

8:                                                ; preds = %7, %5
  %9 = load ptr, ptr @rcu_lock, align 8, !tbaa !33
  call void @ossl_rcu_write_lock(ptr noundef %9) #11
  %10 = call ptr @ossl_rcu_uptr_deref(ptr noundef nonnull @writer_ptr) #11
  %11 = load i64, ptr @global_ctr, align 8, !tbaa !12
  %12 = add i64 %11, 1
  store i64 %12, ptr @global_ctr, align 8, !tbaa !12
  %13 = load ptr, ptr %2, align 8, !tbaa !36
  store i64 %11, ptr %13, align 8, !tbaa !12
  call void @ossl_rcu_assign_uptr(ptr noundef nonnull @writer_ptr, ptr noundef nonnull %2) #11
  %.b7 = load i1, ptr @contention, align 4
  br i1 %.b7, label %17, label %14

14:                                               ; preds = %8
  %15 = load ptr, ptr @rcu_lock, align 8, !tbaa !33
  %16 = call i32 @ossl_rcu_call(ptr noundef %15, ptr noundef nonnull @free_old_rcu_data, ptr noundef %10) #11
  br label %17

17:                                               ; preds = %14, %8
  %18 = load ptr, ptr @rcu_lock, align 8, !tbaa !33
  call void @ossl_rcu_write_unlock(ptr noundef %18) #11
  %.b = load i1, ptr @contention, align 4
  br i1 %.b, label %19, label %21

19:                                               ; preds = %17
  %20 = load ptr, ptr @rcu_lock, align 8, !tbaa !33
  call void @ossl_synchronize_rcu(ptr noundef %20) #11
  call void @CRYPTO_free(ptr noundef %10, ptr noundef null, i32 noundef 0) #11
  br label %21

21:                                               ; preds = %19, %17
  %22 = call i64 @ossl_time_now() #11
  %23 = udiv i64 %22, 1000000000
  %24 = sub nsw i64 %23, %4
  %25 = icmp ugt i64 %24, 3
  %26 = add nuw nsw i32 %.0, 1
  br i1 %25, label %27, label %5

27:                                               ; preds = %21
  store i32 %.0, ptr %0, align 4, !tbaa !14
  call void @llvm.lifetime.end.p0(i64 8, ptr nonnull %2) #11
  ret void
}